; Function Attrs: nounwind uwtable
define nonnull ptr @l_Option_beqOption____x40_Init_Data_Option_Basic___hyg_160____at___private_Lean_Elab_MutualInductive_0__Lean_Elab_Command_levelMVarToParam_levelMVarToParam_x27___spec__1___boxed(ptr noundef %0, ptr noundef %1) local_unnamed_addr #1 {
  %3 = ptrtoint ptr %0 to i64
  %4 = and i64 %3, 1
  %.not.i.i = icmp eq i64 %4, 0
  br i1 %.not.i.i, label %8, label %5

5:                                                ; preds = %2
  %6 = lshr i64 %3, 1
  %7 = trunc i64 %6 to i32
  br label %lean_obj_tag.exit.i

8:                                                ; preds = %2
  %9 = getelementptr i8, ptr %0, i64 4
  %.val.i.i = load i32, ptr %9, align 4
  %10 = lshr i32 %.val.i.i, 24
  br label %lean_obj_tag.exit.i

lean_obj_tag.exit.i:                              ; preds = %8, %5
  %.0.i.i = phi i32 [ %7, %5 ], [ %10, %8 ]
  %11 = icmp eq i32 %.0.i.i, 0
  %12 = ptrtoint ptr %1 to i64
  %13 = and i64 %12, 1
  %.not.i11.i = icmp eq i64 %13, 0
  br i1 %11, label %14, label %22

14:                                               ; preds = %lean_obj_tag.exit.i
  br i1 %.not.i11.i, label %18, label %15

15:                                               ; preds = %14
  %16 = lshr i64 %12, 1
  %17 = trunc i64 %16 to i32
  br label %lean_obj_tag.exit14.i

18:                                               ; preds = %14
  %19 = getelementptr i8, ptr %1, i64 4
  %.val.i13.i = load i32, ptr %19, align 4
  %20 = lshr i32 %.val.i13.i, 24
  br label %lean_obj_tag.exit14.i

lean_obj_tag.exit14.i:                            ; preds = %18, %15
  %.0.i12.i = phi i32 [ %17, %15 ], [ %20, %18 ]
  %21 = icmp eq i32 %.0.i12.i, 0
  %..i = zext i1 %21 to i8
  br label %l_Option_beqOption____x40_Init_Data_Option_Basic___hyg_160____at___private_Lean_Elab_MutualInductive_0__Lean_Elab_Command_levelMVarToParam_levelMVarToParam_x27___spec__1.exit

22:                                               ; preds = %lean_obj_tag.exit.i
  br i1 %.not.i11.i, label %26, label %23

23:                                               ; preds = %22
  %24 = lshr i64 %12, 1
  %25 = trunc i64 %24 to i32
  br label %lean_obj_tag.exit18.i

26:                                               ; preds = %22
  %27 = getelementptr i8, ptr %1, i64 4
  %.val.i17.i = load i32, ptr %27, align 4
  %28 = lshr i32 %.val.i17.i, 24
  br label %lean_obj_tag.exit18.i

lean_obj_tag.exit18.i:                            ; preds = %26, %23
  %.0.i16.i = phi i32 [ %25, %23 ], [ %28, %26 ]
  %29 = icmp eq i32 %.0.i16.i, 0
  br i1 %29, label %l_Option_beqOption____x40_Init_Data_Option_Basic___hyg_160____at___private_Lean_Elab_MutualInductive_0__Lean_Elab_Command_levelMVarToParam_levelMVarToParam_x27___spec__1.exit, label %30

30:                                               ; preds = %lean_obj_tag.exit18.i
  %31 = getelementptr inbounds nuw i8, ptr %0, i64 8
  %32 = load ptr, ptr %31, align 8, !tbaa !12
  %33 = getelementptr inbounds nuw i8, ptr %1, i64 8
  %34 = load ptr, ptr %33, align 8, !tbaa !12
  %35 = tail call zeroext i8 @lean_name_eq(ptr noundef %32, ptr noundef %34) #5
  br label %l_Option_beqOption____x40_Init_Data_Option_Basic___hyg_160____at___private_Lean_Elab_MutualInductive_0__Lean_Elab_Command_levelMVarToParam_levelMVarToParam_x27___spec__1.exit

l_Option_beqOption____x40_Init_Data_Option_Basic___hyg_160____at___private_Lean_Elab_MutualInductive_0__Lean_Elab_Command_levelMVarToParam_levelMVarToParam_x27___spec__1.exit: ; preds = %lean_obj_tag.exit14.i, %lean_obj_tag.exit18.i, %30
  %.0.i = phi i8 [ %35, %30 ], [ %..i, %lean_obj_tag.exit14.i ], [ 0, %lean_obj_tag.exit18.i ]
  br i1 %.not.i11.i, label %36, label %lean_dec.exit5

36:                                               ; preds = %l_Option_beqOption____x40_Init_Data_Option_Basic___hyg_160____at___private_Lean_Elab_MutualInductive_0__Lean_Elab_Command_levelMVarToParam_levelMVarToParam_x27___spec__1.exit
  %37 = load i32, ptr %1, align 4, !tbaa !8
  %38 = icmp sgt i32 %37, 1
  br i1 %38, label %39, label %41, !prof !11

39:                                               ; preds = %36
  %40 = add nsw i32 %37, -1
  store i32 %40, ptr %1, align 4, !tbaa !8
  br label %lean_dec.exit5

41:                                               ; preds = %36
  %.not.i = icmp eq i32 %37, 0
  br i1 %.not.i, label %lean_dec.exit5, label %42

42:                                               ; preds = %41
  tail call void @lean_dec_ref_cold(ptr noundef nonnull %1) #5
  br label %lean_dec.exit5

lean_dec.exit5:                                   ; preds = %42, %41, %39, %l_Option_beqOption____x40_Init_Data_Option_Basic___hyg_160____at___private_Lean_Elab_MutualInductive_0__Lean_Elab_Command_levelMVarToParam_levelMVarToParam_x27___spec__1.exit
  br i1 %.not.i.i, label %43, label %lean_dec.exit

43:                                               ; preds = %lean_dec.exit5
  %44 = load i32, ptr %0, align 4, !tbaa !8
  %45 = icmp sgt i32 %44, 1
  br i1 %45, label %46, label %48, !prof !11

46:                                               ; preds = %43
  %47 = add nsw i32 %44, -1
  store i32 %47, ptr %0, align 4, !tbaa !8
  br label %lean_dec.exit

48:                                               ; preds = %43
  %.not.i6 = icmp eq i32 %44, 0
  br i1 %.not.i6, label %lean_dec.exit, label %49

49:                                               ; preds = %48
  tail call void @lean_dec_ref_cold(ptr noundef nonnull %0) #5
  br label %lean_dec.exit

lean_dec.exit:                                    ; preds = %49, %48, %46, %lean_dec.exit5
  %50 = zext i8 %.0.i to i64
  %51 = shl nuw nsw i64 %50, 1
  %52 = or disjoint i64 %51, 1
  %53 = inttoptr i64 %52 to ptr
  ret ptr %53
}